(dp0
S'results_dir'
p1
S'/Users/rchaudhuri/data/2019_03_hd/analyses/'
p2
sS'processed_data_dir'
p3
S'/Users/rchaudhuri/data/2019_03_hd/processed/'
p4
sS'cols'
p5
(dp6
S'measured'
p7
(F0.3
F0.3
F0.3
tp8
sS'SWS'
p9
(F0.824
F0.627
F0.0392
tp10
sS'Wake'
p11
(F0.0118
F0.235
F0.392
tp12
sS'fit'
p13
(F0.49
F0.961
F0.961
tp14
sS'REM'
p15
(F0.392
F0.549
F0.0784
tp16
ssS'raw_data_dir'
p17
S'/Users/rchaudhuri/data/2019_03_hd/raw_data/'
p18
sS'kernel_rates_dir'
p19
S'/Users/rchaudhuri/data/2019_03_hd/analyses/2019_03_kernel_rates/'
p20
s.